target datalayout = "e-m:e-p270:32:32-p271:32:32-p272:64:64-i64:64-i128:128-f80:128-n8:16:32:64-S128"
target triple = "x86_64-pc-linux-gnu"

%struct.AVFormatContext = type { ptr, ptr, ptr, ptr, ptr, i32, i32, ptr, i32, ptr, i32, ptr, ptr, i64, i64, i64, i32, i32, i32, i64, i64, ptr, i32, i32, ptr, i32, i32, i32, i32, ptr, i64, i32, i32, %struct.AVIOInterruptCB, i32, i32, i32, i32, i64, i32, i32, i32, i32, i32, i32, i32, i32, i32, i32, i32, i32, i64, i32, i32, i32, i32, i32, ptr, ptr, ptr, ptr, i32, ptr, ptr, ptr, ptr, i32, ptr, ptr, i64, ptr, ptr, ptr, i64 }
%struct.AVIOInterruptCB = type { ptr, ptr }
%struct.AVStream = type { ptr, i32, i32, ptr, ptr, %struct.AVRational, i64, i64, i64, i32, i32, %struct.AVRational, ptr, %struct.AVRational, %struct.AVPacket, i32, %struct.AVRational, i32 }
%struct.AVPacket = type { ptr, i64, i64, ptr, i32, i32, i32, ptr, i32, i64, i64, ptr, ptr, %struct.AVRational }
%struct.AVRational = type { i32, i32 }
%struct.OGGStreamContext = type { i32, [3 x ptr], [3 x i32], i32, i64, i32, i32, i32, i32, %struct.OGGPage, i32, i64 }
%struct.OGGPage = type { i64, i64, i32, i8, i8, [255 x i8], [65025 x i8], i16 }

; Function Attrs: nounwind uwtable
define internal i32 @ogg_write_header(ptr noundef %0) #0 {
  %2 = alloca ptr, align 8
  %3 = alloca ptr, align 8
  %4 = alloca i32, align 4
  %5 = alloca i32, align 4
  %6 = alloca ptr, align 8
  store ptr %0, ptr %2, align 8, !tbaa !4
  call void @llvm.lifetime.start.p0(i64 8, ptr %3) #9
  store ptr null, ptr %3, align 8, !tbaa !9
  call void @llvm.lifetime.start.p0(i64 4, ptr %4) #9
  call void @llvm.lifetime.start.p0(i64 4, ptr %5) #9
  store i32 0, ptr %5, align 4, !tbaa !11
  br label %7

7:                                                ; preds = %50, %1
  %8 = load i32, ptr %5, align 4, !tbaa !11
  %9 = load ptr, ptr %2, align 8, !tbaa !4
  %10 = getelementptr inbounds nuw %struct.AVFormatContext, ptr %9, i32 0, i32 6
  %11 = load i32, ptr %10, align 4, !tbaa !13
  %12 = icmp ult i32 %8, %11
  br i1 %12, label %13, label %53

13:                                               ; preds = %7
  %14 = load ptr, ptr %2, align 8, !tbaa !4
  %15 = getelementptr inbounds nuw %struct.AVFormatContext, ptr %14, i32 0, i32 7
  %16 = load ptr, ptr %15, align 8, !tbaa !29
  %17 = load i32, ptr %5, align 4, !tbaa !11
  %18 = sext i32 %17 to i64
  %19 = getelementptr inbounds ptr, ptr %16, i64 %18
  %20 = load ptr, ptr %19, align 8, !tbaa !30
  %21 = getelementptr inbounds nuw %struct.AVStream, ptr %20, i32 0, i32 4
  %22 = load ptr, ptr %21, align 8, !tbaa !32
  store ptr %22, ptr %3, align 8, !tbaa !9
  %23 = load ptr, ptr %2, align 8, !tbaa !4
  %24 = load ptr, ptr %2, align 8, !tbaa !4
  %25 = getelementptr inbounds nuw %struct.AVFormatContext, ptr %24, i32 0, i32 7
  %26 = load ptr, ptr %25, align 8, !tbaa !29
  %27 = load i32, ptr %5, align 4, !tbaa !11
  %28 = sext i32 %27 to i64
  %29 = getelementptr inbounds ptr, ptr %26, i64 %28
  %30 = load ptr, ptr %29, align 8, !tbaa !30
  %31 = load ptr, ptr %3, align 8, !tbaa !9
  %32 = getelementptr inbounds nuw %struct.OGGStreamContext, ptr %31, i32 0, i32 1
  %33 = getelementptr inbounds [3 x ptr], ptr %32, i64 0, i64 0
  %34 = load ptr, ptr %33, align 8, !tbaa !39
  %35 = load ptr, ptr %3, align 8, !tbaa !9
  %36 = getelementptr inbounds nuw %struct.OGGStreamContext, ptr %35, i32 0, i32 2
  %37 = getelementptr inbounds [3 x i32], ptr %36, i64 0, i64 0
  %38 = load i32, ptr %37, align 8, !tbaa !11
  %39 = call i32 @ogg_buffer_data(ptr noundef %23, ptr noundef %30, ptr noundef %34, i32 noundef %38, i64 noundef 0, i32 noundef 1)
  %40 = load ptr, ptr %3, align 8, !tbaa !9
  %41 = getelementptr inbounds nuw %struct.OGGStreamContext, ptr %40, i32 0, i32 9
  %42 = getelementptr inbounds nuw %struct.OGGPage, ptr %41, i32 0, i32 3
  %43 = load i8, ptr %42, align 4, !tbaa !40
  %44 = zext i8 %43 to i32
  %45 = or i32 %44, 2
  %46 = trunc i32 %45 to i8
  store i8 %46, ptr %42, align 4, !tbaa !40
  %47 = load ptr, ptr %2, align 8, !tbaa !4
  %48 = load ptr, ptr %3, align 8, !tbaa !9
  %49 = call i32 @ogg_buffer_page(ptr noundef %47, ptr noundef %48)
  br label %50

50:                                               ; preds = %13
  %51 = load i32, ptr %5, align 4, !tbaa !11
  %52 = add nsw i32 %51, 1
  store i32 %52, ptr %5, align 4, !tbaa !11
  br label %7, !llvm.loop !44

53:                                               ; preds = %7
  store i32 0, ptr %5, align 4, !tbaa !11
  br label %54

54:                                               ; preds = %106, %53
  %55 = load i32, ptr %5, align 4, !tbaa !11
  %56 = load ptr, ptr %2, align 8, !tbaa !4
  %57 = getelementptr inbounds nuw %struct.AVFormatContext, ptr %56, i32 0, i32 6
  %58 = load i32, ptr %57, align 4, !tbaa !13
  %59 = icmp ult i32 %55, %58
  br i1 %59, label %60, label %109

60:                                               ; preds = %54
  call void @llvm.lifetime.start.p0(i64 8, ptr %6) #9
  %61 = load ptr, ptr %2, align 8, !tbaa !4
  %62 = getelementptr inbounds nuw %struct.AVFormatContext, ptr %61, i32 0, i32 7
  %63 = load ptr, ptr %62, align 8, !tbaa !29
  %64 = load i32, ptr %5, align 4, !tbaa !11
  %65 = sext i32 %64 to i64
  %66 = getelementptr inbounds ptr, ptr %63, i64 %65
  %67 = load ptr, ptr %66, align 8, !tbaa !30
  store ptr %67, ptr %6, align 8, !tbaa !30
  %68 = load ptr, ptr %6, align 8, !tbaa !30
  %69 = getelementptr inbounds nuw %struct.AVStream, ptr %68, i32 0, i32 4
  %70 = load ptr, ptr %69, align 8, !tbaa !32
  store ptr %70, ptr %3, align 8, !tbaa !9
  store i32 1, ptr %4, align 4, !tbaa !11
  br label %71

71:                                               ; preds = %99, %60
  %72 = load i32, ptr %4, align 4, !tbaa !11
  %73 = icmp slt i32 %72, 3
  br i1 %73, label %74, label %102

74:                                               ; preds = %71
  %75 = load ptr, ptr %3, align 8, !tbaa !9
  %76 = getelementptr inbounds nuw %struct.OGGStreamContext, ptr %75, i32 0, i32 2
  %77 = load i32, ptr %4, align 4, !tbaa !11
  %78 = sext i32 %77 to i64
  %79 = getelementptr inbounds [3 x i32], ptr %76, i64 0, i64 %78
  %80 = load i32, ptr %79, align 4, !tbaa !11
  %81 = icmp ne i32 %80, 0
  br i1 %81, label %82, label %98

82:                                               ; preds = %74
  %83 = load ptr, ptr %2, align 8, !tbaa !4
  %84 = load ptr, ptr %6, align 8, !tbaa !30
  %85 = load ptr, ptr %3, align 8, !tbaa !9
  %86 = getelementptr inbounds nuw %struct.OGGStreamContext, ptr %85, i32 0, i32 1
  %87 = load i32, ptr %4, align 4, !tbaa !11
  %88 = sext i32 %87 to i64
  %89 = getelementptr inbounds [3 x ptr], ptr %86, i64 0, i64 %88
  %90 = load ptr, ptr %89, align 8, !tbaa !39
  %91 = load ptr, ptr %3, align 8, !tbaa !9
  %92 = getelementptr inbounds nuw %struct.OGGStreamContext, ptr %91, i32 0, i32 2
  %93 = load i32, ptr %4, align 4, !tbaa !11
  %94 = sext i32 %93 to i64
  %95 = getelementptr inbounds [3 x i32], ptr %92, i64 0, i64 %94
  %96 = load i32, ptr %95, align 4, !tbaa !11
  %97 = call i32 @ogg_buffer_data(ptr noundef %83, ptr noundef %84, ptr noundef %90, i32 noundef %96, i64 noundef 0, i32 noundef 1)
  br label %98

98:                                               ; preds = %82, %74
  br label %99

99:                                               ; preds = %98
  %100 = load i32, ptr %4, align 4, !tbaa !11
  %101 = add nsw i32 %100, 1
  store i32 %101, ptr %4, align 4, !tbaa !11
  br label %71, !llvm.loop !46

102:                                              ; preds = %71
  %103 = load ptr, ptr %2, align 8, !tbaa !4
  %104 = load ptr, ptr %3, align 8, !tbaa !9
  %105 = call i32 @ogg_buffer_page(ptr noundef %103, ptr noundef %104)
  call void @llvm.lifetime.end.p0(i64 8, ptr %6) #9
  br label %106

106:                                              ; preds = %102
  %107 = load i32, ptr %5, align 4, !tbaa !11
  %108 = add nsw i32 %107, 1
  store i32 %108, ptr %5, align 4, !tbaa !11
  br label %54, !llvm.loop !47

109:                                              ; preds = %54
  %110 = load ptr, ptr %3, align 8, !tbaa !9
  %111 = getelementptr inbounds nuw %struct.OGGStreamContext, ptr %110, i32 0, i32 9
  %112 = getelementptr inbounds nuw %struct.OGGPage, ptr %111, i32 0, i32 0
  store i64 -9223372036854775808, ptr %112, align 8, !tbaa !48
  %113 = load ptr, ptr %2, align 8, !tbaa !4
  call void @ogg_write_pages(ptr noundef %113, i32 noundef 2)
  call void @llvm.lifetime.end.p0(i64 4, ptr %5) #9
  call void @llvm.lifetime.end.p0(i64 4, ptr %4) #9
  call void @llvm.lifetime.end.p0(i64 8, ptr %3) #9
  ret i32 0
}