; Function Attrs: nounwind uwtable
define internal noundef i32 @ogg_write_header(ptr noundef readonly captures(none) %0) #0 {
.lr.ph:
  %1 = getelementptr inbounds nuw i8, ptr %0, i64 44
  %2 = load i32, ptr %1, align 4, !tbaa !4
  %.not77 = icmp ne i32 %2, 0
  tail call void @llvm.assume(i1 %.not77)
  %3 = getelementptr inbounds nuw i8, ptr %0, i64 48
  br label %7

.preheader:                                       ; preds = %7
  %4 = icmp eq i32 %22, 0
  br i1 %4, label %._crit_edge, label %.lr.ph75

.lr.ph75:                                         ; preds = %.preheader
  %5 = getelementptr inbounds nuw i8, ptr %0, i64 48
  %6 = getelementptr inbounds nuw i8, ptr %0, i64 24
  br label %25

7:                                                ; preds = %.lr.ph, %7
  %indvars.iv = phi i64 [ 0, %.lr.ph ], [ %indvars.iv.next, %7 ]
  %8 = load ptr, ptr %3, align 8, !tbaa !24
  %9 = getelementptr inbounds nuw ptr, ptr %8, i64 %indvars.iv
  %10 = load ptr, ptr %9, align 8, !tbaa !25
  %11 = getelementptr inbounds nuw i8, ptr %10, i64 24
  %12 = load ptr, ptr %11, align 8, !tbaa !27
  %13 = getelementptr inbounds nuw i8, ptr %12, i64 8
  %14 = load ptr, ptr %13, align 8, !tbaa !34
  %15 = getelementptr inbounds nuw i8, ptr %12, i64 32
  %16 = load i32, ptr %15, align 8, !tbaa !35
  %17 = getelementptr i8, ptr %10, i64 16
  %.val = load ptr, ptr %17, align 8, !tbaa !36
  %18 = getelementptr i8, ptr %.val, i64 4
  %.val.val = load i32, ptr %18, align 4, !tbaa !37
  tail call fastcc void @ogg_buffer_data(ptr noundef nonnull %0, i32 %.val.val, ptr %12, ptr noundef %14, i32 noundef %16, i64 noundef 0, i32 noundef 1)
  %19 = getelementptr inbounds nuw i8, ptr %12, i64 92
  %20 = load i8, ptr %19, align 4, !tbaa !40
  %21 = or i8 %20, 2
  store i8 %21, ptr %19, align 4, !tbaa !40
  tail call fastcc void @ogg_buffer_page(ptr noundef nonnull %0, ptr noundef %12)
  %indvars.iv.next = add nuw nsw i64 %indvars.iv, 1
  %22 = load i32, ptr %1, align 4, !tbaa !4
  %23 = zext i32 %22 to i64
  %24 = icmp samesign ult i64 %indvars.iv.next, %23
  br i1 %24, label %7, label %.preheader, !llvm.loop !44

25:                                               ; preds = %.lr.ph75, %162
  %indvars.iv84 = phi i64 [ 0, %.lr.ph75 ], [ %indvars.iv.next85, %162 ]
  %26 = load ptr, ptr %5, align 8, !tbaa !24
  %27 = getelementptr inbounds nuw ptr, ptr %26, i64 %indvars.iv84
  %28 = load ptr, ptr %27, align 8, !tbaa !25
  %29 = getelementptr inbounds nuw i8, ptr %28, i64 24
  %30 = load ptr, ptr %29, align 8, !tbaa !27
  %31 = getelementptr inbounds nuw i8, ptr %30, i64 32
  %32 = getelementptr inbounds nuw i8, ptr %30, i64 8
  br label %33

33:                                               ; preds = %25, %ogg_buffer_data.exit
  %indvars.iv81 = phi i64 [ 1, %25 ], [ %indvars.iv.next82, %ogg_buffer_data.exit ]
  %34 = getelementptr inbounds nuw [3 x i32], ptr %31, i64 0, i64 %indvars.iv81
  %35 = load i32, ptr %34, align 4, !tbaa !35
  %.not = icmp eq i32 %35, 0
  br i1 %.not, label %ogg_buffer_data.exit, label %.thread16.i

.thread16.i:                                      ; preds = %33
  %36 = getelementptr inbounds nuw [3 x ptr], ptr %32, i64 0, i64 %indvars.iv81
  %37 = load ptr, ptr %36, align 8, !tbaa !34
  %.val38 = load ptr, ptr %29, align 8, !tbaa !27
  %38 = udiv i32 %35, 255
  %39 = add nuw nsw i32 %38, 1
  %40 = getelementptr inbounds nuw i8, ptr %.val38, i64 72
  %41 = getelementptr inbounds nuw i8, ptr %.val38, i64 93
  %42 = getelementptr inbounds nuw i8, ptr %.val38, i64 94
  %43 = getelementptr inbounds nuw i8, ptr %.val38, i64 65374
  %44 = getelementptr inbounds nuw i8, ptr %.val38, i64 80
  %45 = getelementptr inbounds nuw i8, ptr %.val38, i64 44
  %46 = getelementptr inbounds nuw i8, ptr %.val38, i64 92
  %47 = getelementptr inbounds nuw i8, ptr %.val38, i64 349
  %48 = getelementptr inbounds nuw i8, ptr %.val38, i64 60
  %49 = getelementptr inbounds nuw i8, ptr %.val38, i64 68
  br label %50

50:                                               ; preds = %ogg_buffer_page.exit71, %.thread16.i
  %.024.i = phi i32 [ %35, %.thread16.i ], [ %78, %ogg_buffer_page.exit71 ]
  %.09123.i = phi ptr [ %37, %.thread16.i ], [ %77, %ogg_buffer_page.exit71 ]
  %.09222.i = phi i32 [ 0, %.thread16.i ], [ %79, %ogg_buffer_page.exit71 ]
  %51 = sub nsw i32 %39, %.09222.i
  %52 = load i8, ptr %41, align 1, !tbaa !46
  %53 = xor i8 %52, -1
  %54 = zext i8 %53 to i32
  %..i = tail call i32 @llvm.smin.i32(i32 %51, i32 %54)
  %.not108.i = icmp ne i32 %.09222.i, 0
  %.not109.i = icmp eq i8 %52, 0
  %or.cond19.i = select i1 %.not108.i, i1 %.not109.i, i1 false
  br i1 %or.cond19.i, label %55, label %58

55:                                               ; preds = %50
  %56 = load i8, ptr %46, align 4, !tbaa !47
  %57 = or i8 %56, 1
  store i8 %57, ptr %46, align 4, !tbaa !47
  br label %58

58:                                               ; preds = %55, %50
  %59 = zext i8 %52 to i64
  %60 = getelementptr inbounds nuw i8, ptr %42, i64 %59
  %61 = add nsw i32 %..i, -1
  %62 = sext i32 %61 to i64
  tail call void @llvm.memset.p0.i64(ptr nonnull align 1 %60, i8 -1, i64 %62, i1 false)
  %63 = trunc i32 %61 to i8
  %64 = add i8 %52, %63
  %65 = mul nsw i32 %..i, 255
  %66 = tail call i32 @llvm.umin.i32(i32 %.024.i, i32 %65)
  %67 = add i32 %66, %61
  %68 = trunc i32 %67 to i8
  %69 = add i8 %64, 1
  store i8 %69, ptr %41, align 1, !tbaa !46
  %70 = zext i8 %64 to i64
  %71 = getelementptr inbounds nuw [255 x i8], ptr %42, i64 0, i64 %70
  store i8 %68, ptr %71, align 1, !tbaa !48
  %.not110.i = icmp eq i32 %66, 0
  br i1 %.not110.i, label %._crit_edge26.i, label %72

72:                                               ; preds = %58
  %73 = load i16, ptr %43, align 2, !tbaa !49
  %74 = zext i16 %73 to i64
  %75 = getelementptr inbounds nuw i8, ptr %47, i64 %74
  %76 = sext i32 %66 to i64
  tail call void @llvm.memcpy.p0.p0.i64(ptr nonnull align 1 %75, ptr align 1 %.09123.i, i64 %76, i1 false)
  br label %._crit_edge26.i

._crit_edge26.i:                                  ; preds = %72, %58
  %.pre-phi.i = phi i64 [ %76, %72 ], [ 0, %58 ]
  %77 = getelementptr inbounds i8, ptr %.09123.i, i64 %.pre-phi.i
  %78 = sub i32 %.024.i, %66
  %79 = add nsw i32 %..i, %.09222.i
  %80 = load i16, ptr %43, align 2, !tbaa !49
  %81 = trunc i32 %66 to i16
  %82 = add i16 %80, %81
  store i16 %82, ptr %43, align 2, !tbaa !49
  %83 = icmp eq i32 %79, %39
  br i1 %83, label %84, label %ogg_granule_to_timestamp.exit130.i

84:                                               ; preds = %._crit_edge26.i
  store i64 0, ptr %44, align 8, !tbaa !50
  br label %ogg_granule_to_timestamp.exit130.i

ogg_granule_to_timestamp.exit130.i:               ; preds = %84, %._crit_edge26.i
  %85 = icmp eq i8 %69, -1
  br i1 %85, label %.sink.split.i, label %ogg_buffer_page.exit71

.sink.split.i:                                    ; preds = %ogg_granule_to_timestamp.exit130.i
  %86 = load ptr, ptr %6, align 8, !tbaa !51
  %87 = tail call noalias ptr @av_mallocz(i64 noundef 65312) #9
  %.not.i39 = icmp eq ptr %87, null
  br i1 %.not.i39, label %ogg_buffer_page.exit71, label %88

88:                                               ; preds = %.sink.split.i
  %89 = getelementptr inbounds nuw i8, ptr %86, i64 8
  tail call void @llvm.memcpy.p0.p0.i64(ptr noundef nonnull align 8 dereferenceable(65304) %87, ptr noundef nonnull align 8 dereferenceable(65304) %40, i64 65304, i1 false), !tbaa.struct !52
  %90 = load i64, ptr %44, align 8, !tbaa !55
  %91 = load i32, ptr %45, align 4, !tbaa !56
  %.not.i.i40 = icmp eq i32 %91, 0
  br i1 %.not.i.i40, label %99, label %92

92:                                               ; preds = %88
  %93 = zext nneg i32 %91 to i64
  %94 = ashr i64 %90, %93
  %notmask.i.i41 = shl nsw i32 -1, %91
  %95 = xor i32 %notmask.i.i41, -1
  %96 = zext nneg i32 %95 to i64
  %97 = and i64 %90, %96
  %98 = add nsw i64 %97, %94
  br label %ogg_granule_to_timestamp.exit.i42

99:                                               ; preds = %88
  %100 = load i32, ptr %48, align 4, !tbaa !57
  %.not9.i.i69 = icmp eq i32 %100, 0
  %101 = ashr i64 %90, 32
  %spec.select.i.i70 = select i1 %.not9.i.i69, i64 %90, i64 %101
  br label %ogg_granule_to_timestamp.exit.i42

ogg_granule_to_timestamp.exit.i42:                ; preds = %99, %92
  %.0.i.i43 = phi i64 [ %98, %92 ], [ %spec.select.i.i70, %99 ]
  store i64 %.0.i.i43, ptr %40, align 8, !tbaa !58
  %102 = load i32, ptr %49, align 4, !tbaa !59
  %103 = add i32 %102, 1
  store i32 %103, ptr %49, align 4, !tbaa !59
  store i64 -1, ptr %44, align 8, !tbaa !55
  store i8 0, ptr %46, align 4, !tbaa !40
  store i8 0, ptr %41, align 1, !tbaa !60
  store i16 0, ptr %43, align 2, !tbaa !61
  %104 = load ptr, ptr %89, align 8, !tbaa !62
  %.not2230.i44 = icmp eq ptr %104, null
  br i1 %.not2230.i44, label %ogg_compare_granule.exit._crit_edge.i61, label %.lr.ph.i45

.lr.ph.i45:                                       ; preds = %ogg_granule_to_timestamp.exit.i42
  %.val.i46 = load ptr, ptr %5, align 8, !tbaa !24
  %105 = getelementptr inbounds nuw i8, ptr %87, i64 16
  %106 = load i32, ptr %105, align 8, !tbaa !64
  %107 = sext i32 %106 to i64
  %108 = getelementptr inbounds ptr, ptr %.val.i46, i64 %107
  %109 = load ptr, ptr %108, align 8, !tbaa !25
  %110 = getelementptr inbounds nuw i8, ptr %87, i64 8
  %111 = getelementptr inbounds nuw i8, ptr %109, i64 24
  %112 = getelementptr inbounds nuw i8, ptr %109, i64 32
  br label %113

113:                                              ; preds = %ogg_compare_granule.exit.thread.i59, %.lr.ph.i45
  %114 = phi ptr [ %104, %.lr.ph.i45 ], [ %160, %ogg_compare_granule.exit.thread.i59 ]
  %.01931.i47 = phi ptr [ %89, %.lr.ph.i45 ], [ %159, %ogg_compare_granule.exit.thread.i59 ]
  %115 = getelementptr i8, ptr %114, i64 8
  %.val24.i48 = load i64, ptr %115, align 8, !tbaa !50
  %116 = getelementptr i8, ptr %114, i64 16
  %.val25.i49 = load i32, ptr %116, align 8, !tbaa !64
  %117 = sext i32 %.val25.i49 to i64
  %118 = getelementptr inbounds ptr, ptr %.val.i46, i64 %117
  %119 = load ptr, ptr %118, align 8, !tbaa !25
  %120 = icmp eq i64 %.val24.i48, -1
  br i1 %120, label %ogg_compare_granule.exit.thread.i59, label %121

121:                                              ; preds = %113
  %122 = load i64, ptr %110, align 8, !tbaa !50
  %123 = icmp eq i64 %122, -1
  br i1 %123, label %ogg_compare_granule.exit.thread.i59, label %124

124:                                              ; preds = %121
  %125 = getelementptr inbounds nuw i8, ptr %119, i64 24
  %126 = load ptr, ptr %125, align 8, !tbaa !27
  %127 = getelementptr inbounds nuw i8, ptr %126, i64 44
  %128 = load i32, ptr %127, align 4, !tbaa !56
  %.not.i.i.i50 = icmp eq i32 %128, 0
  br i1 %.not.i.i.i50, label %136, label %129

129:                                              ; preds = %124
  %130 = zext nneg i32 %128 to i64
  %131 = ashr i64 %.val24.i48, %130
  %notmask.i.i.i51 = shl nsw i32 -1, %128
  %132 = xor i32 %notmask.i.i.i51, -1
  %133 = zext nneg i32 %132 to i64
  %134 = and i64 %.val24.i48, %133
  %135 = add nsw i64 %134, %131
  br label %ogg_granule_to_timestamp.exit.i.i52

136:                                              ; preds = %124
  %137 = getelementptr inbounds nuw i8, ptr %126, i64 60
  %138 = load i32, ptr %137, align 4, !tbaa !57
  %.not9.i.i.i67 = icmp eq i32 %138, 0
  %139 = ashr i64 %.val24.i48, 32
  %spec.select.i.i.i68 = select i1 %.not9.i.i.i67, i64 %.val24.i48, i64 %139
  br label %ogg_granule_to_timestamp.exit.i.i52

ogg_granule_to_timestamp.exit.i.i52:              ; preds = %136, %129
  %.0.i.i.i53 = phi i64 [ %135, %129 ], [ %spec.select.i.i.i68, %136 ]
  %140 = getelementptr inbounds nuw i8, ptr %119, i64 32
  %141 = load i64, ptr %140, align 8
  %142 = tail call i64 @av_rescale_q(i64 noundef %.0.i.i.i53, i64 %141, i64 4294967296000001) #10
  %143 = load ptr, ptr %111, align 8, !tbaa !27
  %144 = getelementptr inbounds nuw i8, ptr %143, i64 44
  %145 = load i32, ptr %144, align 4, !tbaa !56
  %.not.i17.i.i54 = icmp eq i32 %145, 0
  br i1 %.not.i17.i.i54, label %153, label %146

146:                                              ; preds = %ogg_granule_to_timestamp.exit.i.i52
  %147 = zext nneg i32 %145 to i64
  %148 = ashr i64 %122, %147
  %notmask.i18.i.i55 = shl nsw i32 -1, %145
  %149 = xor i32 %notmask.i18.i.i55, -1
  %150 = zext nneg i32 %149 to i64
  %151 = and i64 %122, %150
  %152 = add nsw i64 %151, %148
  br label %ogg_compare_granule.exit.i56

153:                                              ; preds = %ogg_granule_to_timestamp.exit.i.i52
  %154 = getelementptr inbounds nuw i8, ptr %143, i64 60
  %155 = load i32, ptr %154, align 4, !tbaa !57
  %.not9.i20.i.i65 = icmp eq i32 %155, 0
  %156 = ashr i64 %122, 32
  %spec.select.i21.i.i66 = select i1 %.not9.i20.i.i65, i64 %122, i64 %156
  br label %ogg_compare_granule.exit.i56

ogg_compare_granule.exit.i56:                     ; preds = %153, %146
  %.0.i19.i.i57 = phi i64 [ %152, %146 ], [ %spec.select.i21.i.i66, %153 ]
  %157 = load i64, ptr %112, align 8
  %158 = tail call i64 @av_rescale_q(i64 noundef %.0.i19.i.i57, i64 %157, i64 4294967296000001) #10
  %.not29.i58 = icmp sgt i64 %142, %158
  br i1 %.not29.i58, label %ogg_compare_granule.exit._crit_edge.i61, label %ogg_compare_granule.exit.thread.i59

ogg_compare_granule.exit.thread.i59:              ; preds = %ogg_compare_granule.exit.i56, %121, %113
  %159 = getelementptr inbounds nuw i8, ptr %114, i64 65304
  %160 = load ptr, ptr %159, align 8, !tbaa !62
  %.not22.i60 = icmp eq ptr %160, null
  br i1 %.not22.i60, label %ogg_compare_granule.exit._crit_edge.i61, label %113, !llvm.loop !65

ogg_compare_granule.exit._crit_edge.i61:          ; preds = %ogg_compare_granule.exit.thread.i59, %ogg_compare_granule.exit.i56, %ogg_granule_to_timestamp.exit.i42
  %.019.lcssa.i62 = phi ptr [ %89, %ogg_granule_to_timestamp.exit.i42 ], [ %159, %ogg_compare_granule.exit.thread.i59 ], [ %.01931.i47, %ogg_compare_granule.exit.i56 ]
  %.lcssa.i63 = phi ptr [ null, %ogg_granule_to_timestamp.exit.i42 ], [ null, %ogg_compare_granule.exit.thread.i59 ], [ %114, %ogg_compare_granule.exit.i56 ]
  %161 = getelementptr inbounds nuw i8, ptr %87, i64 65304
  store ptr %.lcssa.i63, ptr %161, align 8, !tbaa !66
  store ptr %87, ptr %.019.lcssa.i62, align 8, !tbaa !62
  br label %ogg_buffer_page.exit71

ogg_buffer_page.exit71:                           ; preds = %ogg_compare_granule.exit._crit_edge.i61, %.sink.split.i, %ogg_granule_to_timestamp.exit130.i
  %.not105.i = icmp sgt i32 %79, %38
  br i1 %.not105.i, label %ogg_buffer_data.exit, label %50, !llvm.loop !68

ogg_buffer_data.exit:                             ; preds = %ogg_buffer_page.exit71, %33
  %indvars.iv.next82 = add nuw nsw i64 %indvars.iv81, 1
  %exitcond.not = icmp eq i64 %indvars.iv.next82, 3
  br i1 %exitcond.not, label %162, label %33, !llvm.loop !69

162:                                              ; preds = %ogg_buffer_data.exit
  tail call fastcc void @ogg_buffer_page(ptr noundef nonnull %0, ptr noundef %30)
  %indvars.iv.next85 = add nuw nsw i64 %indvars.iv84, 1
  %163 = load i32, ptr %1, align 4, !tbaa !4
  %164 = zext i32 %163 to i64
  %165 = icmp samesign ult i64 %indvars.iv.next85, %164
  br i1 %165, label %25, label %._crit_edge, !llvm.loop !70

._crit_edge:                                      ; preds = %162, %.preheader
  %.1.lcssa = phi ptr [ %12, %.preheader ], [ %30, %162 ]
  %166 = getelementptr inbounds nuw i8, ptr %.1.lcssa, i64 72
  store i64 -9223372036854775808, ptr %166, align 8, !tbaa !58
  tail call fastcc void @ogg_write_pages(ptr noundef nonnull %0, i32 noundef 2)
  ret i32 0
}